; Function Attrs: mustprogress nounwind uwtable
define internal void @"_ZN4llvm12function_refIFNSt7__cxx1112basic_stringIcSt11char_traitsIcESaIcEEEvEE11callback_fnIZN5clang6Parser27ParseCXXMemberSpecificationENSA_14SourceLocationESC_RNSA_16ParsedAttributesEjPNSA_4DeclEE3$_0EES6_l"(ptr dead_on_unwind noalias writable sret(%"class.std::__cxx11::basic_string") align 8 %0, i64 noundef %1) #0 align 2 {
  %3 = alloca %"class.std::allocator.274", align 1
  %4 = inttoptr i64 %1 to ptr
  %.val = load ptr, ptr %4, align 8
  %.val.val = load ptr, ptr %.val, align 8
  call void @llvm.lifetime.start.p0(i64 1, ptr nonnull %3)
  %.not.i.i.i = icmp eq ptr %.val.val, null
  br i1 %.not.i.i.i, label %11, label %5

5:                                                ; preds = %2
  %6 = getelementptr inbounds nuw i8, ptr %.val.val, i64 28
  %7 = load i32, ptr %6, align 4, !noalias !310
  %8 = and i32 %7, 127
  %9 = add nsw i32 %8, -15
  %10 = icmp ult i32 %9, 63
  br i1 %10, label %_ZN4llvm16dyn_cast_or_nullIN5clang9NamedDeclENS1_4DeclEEEDaPT0_.exit.i, label %11

_ZN4llvm16dyn_cast_or_nullIN5clang9NamedDeclENS1_4DeclEEEDaPT0_.exit.i: ; preds = %5
  tail call void @_ZNK5clang9NamedDecl24getQualifiedNameAsStringB5cxx11Ev(ptr dead_on_unwind writable sret(%"class.std::__cxx11::basic_string") align 8 %0, ptr noundef nonnull align 8 dereferenceable(48) %.val.val) #19
  br label %"_ZZN5clang6Parser27ParseCXXMemberSpecificationENS_14SourceLocationES1_RNS_16ParsedAttributesEjPNS_4DeclEENK3$_0clB5cxx11Ev.exit"

11:                                               ; preds = %5, %2
  call void @_ZNSaIcEC1Ev(ptr noundef nonnull align 1 dereferenceable(1) %3) #19, !noalias !310
  %12 = call noundef ptr @_ZNSt7__cxx1112basic_stringIcSt11char_traitsIcESaIcEE13_M_local_dataEv(ptr noundef nonnull align 8 dereferenceable(32) %0) #19
  call void @_ZNSt7__cxx1112basic_stringIcSt11char_traitsIcESaIcEE12_Alloc_hiderC1EPcRKS3_(ptr noundef nonnull align 8 dereferenceable(8) %0, ptr noundef %12, ptr noundef nonnull align 1 dereferenceable(1) %3) #19
  %13 = call noundef ptr @_ZNSt7__cxx1112basic_stringIcSt11char_traitsIcESaIcEE13_M_local_dataEv(ptr noundef nonnull align 8 dereferenceable(32) %0) #19
  %14 = call noundef ptr @_ZNKSt7__cxx1112basic_stringIcSt11char_traitsIcESaIcEE7_M_dataEv(ptr noundef nonnull align 8 dereferenceable(32) %0) #19
  call void @_ZNSt7__cxx1112basic_stringIcSt11char_traitsIcESaIcEE13_S_copy_charsEPcPKcS7_(ptr noundef %14, ptr noundef nonnull @.str.54, ptr noundef nonnull getelementptr inbounds (i8, ptr @.str.54, i64 11)) #19
  call void @_ZNSt7__cxx1112basic_stringIcSt11char_traitsIcESaIcEE13_M_set_lengthEm(ptr noundef nonnull align 8 dereferenceable(32) %0, i64 noundef 11) #19
  call void @_ZNSaIcED1Ev(ptr noundef nonnull align 1 dereferenceable(1) %3) #19
  br label %"_ZZN5clang6Parser27ParseCXXMemberSpecificationENS_14SourceLocationES1_RNS_16ParsedAttributesEjPNS_4DeclEENK3$_0clB5cxx11Ev.exit"

"_ZZN5clang6Parser27ParseCXXMemberSpecificationENS_14SourceLocationES1_RNS_16ParsedAttributesEjPNS_4DeclEENK3$_0clB5cxx11Ev.exit": ; preds = %_ZN4llvm16dyn_cast_or_nullIN5clang9NamedDeclENS1_4DeclEEEDaPT0_.exit.i, %11
  call void @llvm.lifetime.end.p0(i64 1, ptr nonnull %3)
  ret void
}